; Function Attrs: mustprogress nounwind uwtable
define hidden void @_ZN16ZGenerationYoung32concurrent_select_relocation_setEv(ptr noundef nonnull align 64 dereferenceable(6720) %0) local_unnamed_addr #0 align 2 {
  %2 = alloca %class.TimeInstant, align 8
  %3 = alloca %class.ZStatTimerYoung, align 8
  call void @_ZN15ZStatTimerYoungC1ERK10ZStatPhase(ptr noundef nonnull align 8 dereferenceable(32) %3, ptr noundef nonnull align 8 dereferenceable(48) @_ZL40ZPhaseConcurrentSelectRelocationSetYoung) #18
  %4 = getelementptr inbounds i8, ptr %0, i64 6592
  %5 = load i32, ptr %4, align 64
  %6 = icmp eq i32 %5, 1
  %7 = getelementptr inbounds i8, ptr %0, i64 8
  %8 = load i8, ptr %7, align 8
  call void @_ZN11ZGeneration21select_relocation_setE13ZGenerationIdb(ptr noundef nonnull align 64 dereferenceable(6592) %0, i8 noundef zeroext %8, i1 noundef zeroext %6)
  call void @llvm.lifetime.start.p0(i64 16, ptr nonnull %2)
  %9 = call { i64, i64 } @_ZN29CompositeElapsedCounterSource3nowEv() #18
  %10 = extractvalue { i64, i64 } %9, 0
  store i64 %10, ptr %2, align 8
  %11 = getelementptr inbounds i8, ptr %2, i64 8
  %12 = extractvalue { i64, i64 } %9, 1
  store i64 %12, ptr %11, align 8
  %13 = getelementptr inbounds i8, ptr %3, i64 8
  %14 = load ptr, ptr %13, align 8
  %15 = load ptr, ptr %3, align 8
  %16 = getelementptr inbounds i8, ptr %3, i64 16
  %17 = load ptr, ptr %14, align 8
  %18 = getelementptr inbounds i8, ptr %17, i64 8
  %19 = load ptr, ptr %18, align 8
  call void %19(ptr noundef nonnull align 8 dereferenceable(48) %14, ptr noundef %15, ptr noundef nonnull align 8 dereferenceable(16) %16, ptr noundef nonnull align 8 dereferenceable(16) %2) #18
  call void @llvm.lifetime.end.p0(i64 16, ptr nonnull %2)
  ret void
}